Certificate:
    Data:
        Version: 3 (0x2)
        Serial Number: 1 (0x1)
        Signature Algorithm: sha256WithRSAEncryption
        Issuer: C=ID, ST=Jawa Timur, L=Surabaya, O=Zahrul, CN=Zahrul/emailAddress=Zahrulzizki09@gmail.com
        Validity
            Not Before: Mar 18 12:51:19 2020 GMT
            Not After : Mar 18 12:51:19 2021 GMT
        Subject: C=ID, ST=JawaTimur, O=Zahrul100, OU=Zahrul, CN=example.local
        Subject Public Key Info:
            Public Key Algorithm: rsaEncryption
                RSA Public-Key: (2048 bit)
                Modulus:
                    00:ab:64:87:ff:54:03:13:46:f0:89:10:a7:cc:39:
                    82:3c:2a:de:f2:80:60:ef:38:30:00:03:27:19:63:
                    46:b8:99:a8:c9:45:7d:ab:4c:c2:19:d0:f6:84:96:
                    b6:34:4e:f5:31:34:12:35:cc:ce:a8:fc:de:6e:c5:
                    d5:a3:80:c8:83:ce:7c:7c:6a:e0:63:b2:e0:b8:3e:
                    1b:0b:4c:53:35:df:33:f6:d6:0a:21:5c:a5:f8:62:
                    7a:e9:cd:72:f3:4f:35:db:25:f9:64:67:40:00:8b:
                    ef:76:81:2c:47:24:20:8e:ce:1a:0e:0d:c1:19:82:
                    4a:a4:41:07:b4:05:e6:31:89:d8:e9:1c:17:af:a0:
                    a7:a3:32:55:9b:b0:16:53:94:8b:69:46:30:e9:95:
                    62:db:56:a1:ad:2d:4d:02:e7:ad:96:01:b1:21:c9:
                    9e:7d:be:04:75:f3:b8:6e:44:b2:1b:30:a3:1e:b3:
                    f6:eb:49:e6:b1:33:a6:2b:a2:3b:a8:97:6b:ec:71:
                    28:1e:2c:9a:c5:68:5e:de:d5:8c:47:90:cd:f6:a9:
                    a5:c7:50:94:63:b0:d0:03:56:0a:83:ea:ea:d1:81:
                    a4:9e:b7:30:d9:8c:f5:a8:bf:d2:73:4b:ac:03:64:
                    6c:44:5b:1a:ab:28:43:f2:4d:c3:b6:06:0c:ed:b2:
                    d2:5f
                Exponent: 65537 (0x10001)
        X509v3 extensions:
            X509v3 Basic Constraints: 
                CA:FALSE
            X509v3 Subject Key Identifier: 
                77:E8:BC:DD:CB:08:88:8C:AE:17:EA:EA:79:63:4C:20:D2:6D:00:5F
            X509v3 Authority Key Identifier: 
                keyid:2C:EE:5F:20:2D:59:10:54:99:D7:68:A1:8E:FD:8C:7D:DA:88:DE:1C
                DirName:/C=ID/ST=Jawa Timur/L=Surabaya/O=Zahrul/CN=Zahrul/emailAddress=Zahrulzizki09@gmail.com
                serial:4E:60:40:65:A1:BD:71:2C:D6:B7:71:0B:56:08:93:63:5D:A7:3A:D7

            Netscape CA Revocation Url: 
                https://ca.local/ca-crl.pem
            X509v3 Subject Alternative Name: 
                DNS:example.local, DNS:www.example.local
    Signature Algorithm: sha256WithRSAEncryption
         95:93:2d:b7:44:f1:2a:ed:3e:80:9a:5f:10:3b:14:76:61:c2:
         6d:26:ca:39:1e:f6:91:70:ff:ba:90:48:9f:66:c4:40:43:bd:
         b8:44:17:ea:40:ec:21:4f:f4:ea:ae:71:bf:91:0f:c4:ed:fa:
         99:dc:78:8d:31:66:3a:97:a1:46:28:0b:86:fd:2c:b1:b3:33:
         11:2e:f7:81:28:22:03:a4:51:85:95:e9:fc:16:2e:9a:22:d0:
         a2:a4:ae:d9:bc:0e:12:bf:e8:73:e3:00:89:36:7a:91:f8:18:
         30:1f:dd:74:42:68:77:71:52:72:bb:a7:db:b8:8a:9f:6a:99:
         43:e1:9c:d4:3d:ef:d6:93:2f:37:8d:a4:f9:af:af:56:78:c2:
         75:ae:30:6c:3b:15:58:98:64:5c:4c:63:84:28:1f:1a:e6:3b:
         39:29:a6:00:5f:f9:1c:a5:ac:d8:5b:86:99:ef:85:32:c2:d4:
         46:50:ad:35:63:39:71:11:ed:a5:ba:2e:4f:00:c9:7a:1f:43:
         56:0a:69:75:7f:2c:13:6a:bf:77:7a:1f:41:81:19:c2:06:11:
         11:bd:00:94:08:7c:bd:b9:6d:54:3b:80:60:fb:61:94:0a:3f:
         9e:04:ae:76:4a:fe:98:be:1e:f6:d1:2c:8f:c3:ae:71:a6:80:
         f9:ef:b5:76:44:b9:36:3e:9d:5c:45:e9:33:9c:b4:48:41:b1:
         2f:2e:71:96:67:e9:07:2b:bb:80:c9:2f:58:db:ec:9e:22:2c:
         21:20:02:b3:4e:87:85:22:3b:f5:fc:da:b2:53:46:29:2b:7c:
         8a:6d:65:55:3d:f2:62:a1:7a:81:3d:25:d9:5b:74:86:be:2b:
         1d:3c:a8:a9:77:81:cc:e4:c2:15:47:e2:c7:2c:7f:f8:a8:66:
         6b:40:ed:8a:da:73:dc:d5:17:57:25:2a:9f:6d:5e:e3:cd:f2:
         27:5f:90:f2:24:d6:36:87:b7:af:38:99:b9:e9:73:88:37:b3:
         e5:79:c3:53:c9:dc:44:ee:0d:2f:7a:34:c8:a5:57:ee:c6:9d:
         09:db:d0:de:48:a8:4d:49:60:4c:18:89:4d:7b:13:76:79:08:
         a7:64:29:bb:09:cc:0c:61:50:60:c5:fd:ec:88:1b:fb:3e:cb:
         5a:fd:02:19:b7:dc:4c:87:be:1a:6c:e1:cb:28:bd:70:0e:6a:
         7b:70:27:59:6b:0b:a7:43:b3:b9:79:eb:85:55:25:96:c5:54:
         31:79:60:a2:ec:7f:e5:48:58:4f:c7:6a:48:05:ee:d6:46:22:
         26:a4:18:b4:07:0b:f4:4e:ad:3d:6b:0c:2e:cf:9f:44:32:73:
         2d:a2:74:ab:e2:7c:a9:29
-----BEGIN CERTIFICATE-----
MIIFojCCA4qgAwIBAgIBATANBgkqhkiG9w0BAQsFADB/MQswCQYDVQQGEwJJRDET
MBEGA1UECAwKSmF3YSBUaW11cjERMA8GA1UEBwwIU3VyYWJheWExDzANBgNVBAoM
BlphaHJ1bDEPMA0GA1UEAwwGWmFocnVsMSYwJAYJKoZIhvcNAQkBFhdaYWhydWx6
aXpraTA5QGdtYWlsLmNvbTAeFw0yMDAzMTgxMjUxMTlaFw0yMTAzMTgxMjUxMTla
MF4xCzAJBgNVBAYTAklEMRIwEAYDVQQIDAlKYXdhVGltdXIxEjAQBgNVBAoMCVph
aHJ1bDEwMDEPMA0GA1UECwwGWmFocnVsMRYwFAYDVQQDDA1leGFtcGxlLmxvY2Fs
MIIBIjANBgkqhkiG9w0BAQEFAAOCAQ8AMIIBCgKCAQEAq2SH/1QDE0bwiRCnzDmC
PCre8oBg7zgwAAMnGWNGuJmoyUV9q0zCGdD2hJa2NE71MTQSNczOqPzebsXVo4DI
g858fGrgY7LguD4bC0xTNd8z9tYKIVyl+GJ66c1y80812yX5ZGdAAIvvdoEsRyQg
js4aDg3BGYJKpEEHtAXmMYnY6RwXr6CnozJVm7AWU5SLaUYw6ZVi21ahrS1NAuet
lgGxIcmefb4EdfO4bkSyGzCjHrP260nmsTOmK6I7qJdr7HEoHiyaxWhe3tWMR5DN
9qmlx1CUY7DQA1YKg+rq0YGknrcw2Yz1qL/Sc0usA2RsRFsaqyhD8k3DtgYM7bLS
XwIDAQABo4IBSDCCAUQwCQYDVR0TBAIwADAdBgNVHQ4EFgQUd+i83csIiIyuF+rq
eWNMINJtAF8wgb4GA1UdIwSBtjCBs4AULO5fIC1ZEFSZ12ihjv2MfdqI3hyhgYSk
gYEwfzELMAkGA1UEBhMCSUQxEzARBgNVBAgMCkphd2EgVGltdXIxETAPBgNVBAcM
CFN1cmFiYXlhMQ8wDQYDVQQKDAZaYWhydWwxDzANBgNVBAMMBlphaHJ1bDEmMCQG
CSqGSIb3DQEJARYXWmFocnVseml6a2kwOUBnbWFpbC5jb22CFE5gQGWhvXEs1rdx
C1YIk2NdpzrXMCoGCWCGSAGG+EIBBAQdFhtodHRwczovL2NhLmxvY2FsL2NhLWNy
bC5wZW0wKwYDVR0RBCQwIoINZXhhbXBsZS5sb2NhbIIRd3d3LmV4YW1wbGUubG9j
YWwwDQYJKoZIhvcNAQELBQADggIBAJWTLbdE8SrtPoCaXxA7FHZhwm0myjke9pFw
/7qQSJ9mxEBDvbhEF+pA7CFP9Oqucb+RD8Tt+pnceI0xZjqXoUYoC4b9LLGzMxEu
94EoIgOkUYWV6fwWLpoi0KKkrtm8DhK/6HPjAIk2epH4GDAf3XRCaHdxUnK7p9u4
ip9qmUPhnNQ979aTLzeNpPmvr1Z4wnWuMGw7FViYZFxMY4QoHxrmOzkppgBf+Ryl
rNhbhpnvhTLC1EZQrTVjOXER7aW6Lk8AyXofQ1YKaXV/LBNqv3d6H0GBGcIGERG9
AJQIfL25bVQ7gGD7YZQKP54ErnZK/pi+HvbRLI/DrnGmgPnvtXZEuTY+nVxF6TOc
tEhBsS8ucZZn6Qcru4DJL1jb7J4iLCEgArNOh4UiO/X82rJTRikrfIptZVU98mKh
eoE9JdlbdIa+Kx08qKl3gczkwhVH4scsf/ioZmtA7Yrac9zVF1clKp9tXuPN8idf
kPIk1jaHt684mbnpc4g3s+V5w1PJ3ETuDS96NMilV+7GnQnb0N5IqE1JYEwYiU17
E3Z5CKdkKbsJzAxhUGDF/eyIG/s+y1r9Ahm33EyHvhps4csovXAOantwJ1lrC6dD
s7l564VVJZbFVDF5YKLsf+VIWE/HakgF7tZGIiakGLQHC/ROrT1rDC7Pn0Qycy2i
dKvifKkp
-----END CERTIFICATE-----
